; Function Attrs: mustprogress uwtable
define void @_ZNK8facebook5velox9MapVector8toStringB5cxx11Ei(ptr noalias sret(%"class.std::__cxx11::basic_string") align 8 %agg.result, ptr noundef nonnull align 8 dereferenceable(169) %this, i32 noundef %index) unnamed_addr #0 align 2 personality ptr @__gxx_personality_v0 {
entry:
  %ref.tmp = alloca %"class.std::allocator", align 1
  %ref.tmp6 = alloca %"class.std::function", align 8
  %length_ = getelementptr inbounds i8, ptr %this, i64 56
  %0 = load i32, ptr %length_, align 8
  %cmp.not = icmp sgt i32 %0, %index
  br i1 %cmp.not, label %if.end, label %if.then

if.then:                                          ; preds = %entry
  tail call void @llvm.trap()
  unreachable

if.end:                                           ; preds = %entry
  %vtable = load ptr, ptr %this, align 8
  %vfn = getelementptr inbounds i8, ptr %vtable, i64 32
  %1 = load ptr, ptr %vfn, align 8
  %call = tail call noundef zeroext i1 %1(ptr noundef nonnull align 8 dereferenceable(99) %this, i32 noundef %index)
  br i1 %call, label %if.then2, label %if.end3

if.then2:                                         ; preds = %if.end
  call void @_ZNSaIcEC1Ev(ptr noundef nonnull align 1 dereferenceable(1) %ref.tmp) #22
  %call.i5 = invoke noundef ptr @_ZNSt7__cxx1112basic_stringIcSt11char_traitsIcESaIcEE13_M_local_dataEv(ptr noundef nonnull align 8 dereferenceable(32) %agg.result)
          to label %call.i.noexc unwind label %lpad

call.i.noexc:                                     ; preds = %if.then2
  invoke void @_ZNSt7__cxx1112basic_stringIcSt11char_traitsIcESaIcEE12_Alloc_hiderC1EPcRKS3_(ptr noundef nonnull align 8 dereferenceable(8) %agg.result, ptr noundef %call.i5, ptr noundef nonnull align 1 dereferenceable(1) %ref.tmp)
          to label %.noexc unwind label %lpad

.noexc:                                           ; preds = %call.i.noexc
  invoke void @_ZNSt7__cxx1112basic_stringIcSt11char_traitsIcESaIcEE12_M_constructIPKcEEvT_S8_St20forward_iterator_tag(ptr noundef nonnull align 8 dereferenceable(32) %agg.result, ptr noundef nonnull @.str.5, ptr noundef nonnull getelementptr inbounds ([5 x i8], ptr @.str.5, i64 0, i64 4))
          to label %invoke.cont unwind label %lpad.i

lpad.i:                                           ; preds = %.noexc
  %2 = landingpad { ptr, i32 }
          cleanup
  call void @_ZNSaIcED2Ev(ptr noundef nonnull align 1 dereferenceable(1) %agg.result) #22
  br label %lpad.body

invoke.cont:                                      ; preds = %.noexc
  call void @_ZNSaIcED1Ev(ptr noundef nonnull align 1 dereferenceable(1) %ref.tmp) #22
  br label %return

lpad:                                             ; preds = %call.i.noexc, %if.then2
  %3 = landingpad { ptr, i32 }
          cleanup
  br label %lpad.body

lpad.body:                                        ; preds = %lpad.i, %lpad
  %eh.lpad-body = phi { ptr, i32 } [ %3, %lpad ], [ %2, %lpad.i ]
  call void @_ZNSaIcED1Ev(ptr noundef nonnull align 1 dereferenceable(1) %ref.tmp) #22
  br label %eh.resume

if.end3:                                          ; preds = %if.end
  %rawOffsets_ = getelementptr inbounds i8, ptr %this, i64 112
  %4 = load ptr, ptr %rawOffsets_, align 8
  %idxprom = sext i32 %index to i64
  %arrayidx = getelementptr inbounds i32, ptr %4, i64 %idxprom
  %5 = load i32, ptr %arrayidx, align 4
  %rawSizes_ = getelementptr inbounds i8, ptr %this, i64 128
  %6 = load ptr, ptr %rawSizes_, align 8
  %arrayidx5 = getelementptr inbounds i32, ptr %6, i64 %idxprom
  %7 = load i32, ptr %arrayidx5, align 4
  %_M_manager.i.i = getelementptr inbounds i8, ptr %ref.tmp6, i64 16
  %_M_invoker.i = getelementptr inbounds i8, ptr %ref.tmp6, i64 24
  %8 = getelementptr inbounds i8, ptr %ref.tmp6, i64 8
  store i64 0, ptr %8, align 8
  %9 = ptrtoint ptr %this to i64
  store i64 %9, ptr %ref.tmp6, align 8
  store ptr @"_ZNSt17_Function_handlerIFvRNSt7__cxx1118basic_stringstreamIcSt11char_traitsIcESaIcEEEiEZNK8facebook5velox9MapVector8toStringEiE3$_0E9_M_invokeERKSt9_Any_dataS6_Oi", ptr %_M_invoker.i, align 8
  store ptr @"_ZNSt17_Function_handlerIFvRNSt7__cxx1118basic_stringstreamIcSt11char_traitsIcESaIcEEEiEZNK8facebook5velox9MapVector8toStringEiE3$_0E10_M_managerERSt9_Any_dataRKSD_St18_Manager_operation", ptr %_M_manager.i.i, align 8
  invoke void @_ZN8facebook5velox29stringifyTruncatedElementListEiiiSt17basic_string_viewIcSt11char_traitsIcEERKSt8functionIFvRNSt7__cxx1118basic_stringstreamIcS3_SaIcEEEiEE(ptr sret(%"class.std::__cxx11::basic_string") align 8 %agg.result, i32 noundef %5, i32 noundef %7, i32 noundef 5, i64 2, ptr nonnull @.str.7, ptr noundef nonnull align 8 dereferenceable(32) %ref.tmp6)
          to label %invoke.cont9 unwind label %lpad8

invoke.cont9:                                     ; preds = %if.end3
  %10 = load ptr, ptr %_M_manager.i.i, align 8
  %tobool.not.i.i = icmp eq ptr %10, null
  br i1 %tobool.not.i.i, label %return, label %if.then.i.i

if.then.i.i:                                      ; preds = %invoke.cont9
  %call.i.i8 = invoke noundef zeroext i1 %10(ptr noundef nonnull align 8 dereferenceable(16) %ref.tmp6, ptr noundef nonnull align 8 dereferenceable(16) %ref.tmp6, i32 noundef 3)
          to label %return unwind label %terminate.lpad.i.i

terminate.lpad.i.i:                               ; preds = %if.then.i.i
  %11 = landingpad { ptr, i32 }
          catch ptr null
  %12 = extractvalue { ptr, i32 } %11, 0
  call void @__clang_call_terminate(ptr %12) #25
  unreachable

lpad8:                                            ; preds = %if.end3
  %13 = landingpad { ptr, i32 }
          cleanup
  %14 = load ptr, ptr %_M_manager.i.i, align 8
  %tobool.not.i.i10 = icmp eq ptr %14, null
  br i1 %tobool.not.i.i10, label %eh.resume, label %if.then.i.i11

if.then.i.i11:                                    ; preds = %lpad8
  %call.i.i12 = invoke noundef zeroext i1 %14(ptr noundef nonnull align 8 dereferenceable(16) %ref.tmp6, ptr noundef nonnull align 8 dereferenceable(16) %ref.tmp6, i32 noundef 3)
          to label %eh.resume unwind label %terminate.lpad.i.i13

terminate.lpad.i.i13:                             ; preds = %if.then.i.i11
  %15 = landingpad { ptr, i32 }
          catch ptr null
  %16 = extractvalue { ptr, i32 } %15, 0
  call void @__clang_call_terminate(ptr %16) #25
  unreachable

return:                                           ; preds = %if.then.i.i, %invoke.cont9, %invoke.cont
  ret void

eh.resume:                                        ; preds = %if.then.i.i11, %lpad8, %lpad.body
  %.pn = phi { ptr, i32 } [ %eh.lpad-body, %lpad.body ], [ %13, %lpad8 ], [ %13, %if.then.i.i11 ]
  resume { ptr, i32 } %.pn
}